target datalayout = "e-m:e-p270:32:32-p271:32:32-p272:64:64-i64:64-i128:128-f80:128-n8:16:32:64-S128"
target triple = "x86_64-pc-linux-gnu"

@_ZL3RES = internal global double 1.000000e+03, align 8
@_ZL5RES60 = internal global double 6.000000e+04, align 8
@_ZL4CONV = internal global double 0x41A896B3CC7E836A, align 8
@_ZL6format = internal global [50 x i8] c"%dd%d'%.3f\22%c\00\00\00\00\00\00\00\00\00\00\00\00\00\00\00\00\00\00\00\00\00\00\00\00\00\00\00\00\00\00\00\00\00\00\00\00\00", align 16
@.str = private unnamed_addr constant [19 x i8] c"%%dd%%d'%%.%df\22%%c\00", align 1
@.str.1 = private unnamed_addr constant [24 x i8] c"%%dd%%02d'%%0%d.%df\22%%c\00", align 1
@_ZL6dolong = internal global i32 0, align 4

; Function Attrs: mustprogress nounwind uwtable
define void @_Z10set_rtodmsii(i32 noundef %0, i32 noundef %1) #0 {
  %3 = alloca i32, align 4
  %4 = alloca i32, align 4
  %5 = alloca i32, align 4
  store i32 %0, ptr %3, align 4, !tbaa !3
  store i32 %1, ptr %4, align 4, !tbaa !3
  call void @llvm.lifetime.start.p0(i64 4, ptr %5) #6
  %6 = load i32, ptr %3, align 4, !tbaa !3
  %7 = icmp sge i32 %6, 0
  br i1 %7, label %8, label %44

8:                                                ; preds = %2
  %9 = load i32, ptr %3, align 4, !tbaa !3
  %10 = icmp slt i32 %9, 9
  br i1 %10, label %11, label %44

11:                                               ; preds = %8
  store double 1.000000e+00, ptr @_ZL3RES, align 8, !tbaa !7
  store i32 0, ptr %5, align 4, !tbaa !3
  br label %12

12:                                               ; preds = %19, %11
  %13 = load i32, ptr %5, align 4, !tbaa !3
  %14 = load i32, ptr %3, align 4, !tbaa !3
  %15 = icmp slt i32 %13, %14
  br i1 %15, label %16, label %22

16:                                               ; preds = %12
  %17 = load double, ptr @_ZL3RES, align 8, !tbaa !7
  %18 = fmul double %17, 1.000000e+01
  store double %18, ptr @_ZL3RES, align 8, !tbaa !7
  br label %19

19:                                               ; preds = %16
  %20 = load i32, ptr %5, align 4, !tbaa !3
  %21 = add nsw i32 %20, 1
  store i32 %21, ptr %5, align 4, !tbaa !3
  br label %12, !llvm.loop !9

22:                                               ; preds = %12
  %23 = load double, ptr @_ZL3RES, align 8, !tbaa !7
  %24 = fmul double %23, 6.000000e+01
  store double %24, ptr @_ZL5RES60, align 8, !tbaa !7
  %25 = load double, ptr @_ZL3RES, align 8, !tbaa !7
  %26 = fmul double 6.480000e+05, %25
  %27 = fdiv double %26, 0x400921FB54442D18
  store double %27, ptr @_ZL4CONV, align 8, !tbaa !7
  %28 = load i32, ptr %4, align 4, !tbaa !3
  %29 = icmp ne i32 %28, 0
  br i1 %29, label %33, label %30

30:                                               ; preds = %22
  %31 = load i32, ptr %3, align 4, !tbaa !3
  %32 = call i32 (ptr, i64, ptr, ...) @snprintf(ptr noundef @_ZL6format, i64 noundef 50, ptr noundef @.str, i32 noundef %31) #6
  br label %42

33:                                               ; preds = %22
  %34 = load i32, ptr %3, align 4, !tbaa !3
  %35 = add nsw i32 %34, 2
  %36 = load i32, ptr %3, align 4, !tbaa !3
  %37 = icmp ne i32 %36, 0
  %38 = select i1 %37, i32 1, i32 0
  %39 = add nsw i32 %35, %38
  %40 = load i32, ptr %3, align 4, !tbaa !3
  %41 = call i32 (ptr, i64, ptr, ...) @snprintf(ptr noundef @_ZL6format, i64 noundef 50, ptr noundef @.str.1, i32 noundef %39, i32 noundef %40) #6
  br label %42

42:                                               ; preds = %33, %30
  %43 = load i32, ptr %4, align 4, !tbaa !3
  store i32 %43, ptr @_ZL6dolong, align 4, !tbaa !3
  br label %44

44:                                               ; preds = %42, %8, %2
  call void @llvm.lifetime.end.p0(i64 4, ptr %5) #6
  ret void
}