; Function Attrs: mustprogress nofree nounwind uwtable
define void @_Z10set_rtodmsii(i32 noundef %0, i32 noundef %1) local_unnamed_addr #0 {
  %or.cond = icmp ult i32 %0, 9
  br i1 %or.cond, label %3, label %20

3:                                                ; preds = %2
  store double 1.000000e+00, ptr @_ZL3RES, align 8, !tbaa !3
  %.not15 = icmp eq i32 %0, 0
  br i1 %.not15, label %7, label %.lr.ph

.lr.ph:                                           ; preds = %3, %.lr.ph
  %.014 = phi i32 [ %6, %.lr.ph ], [ 0, %3 ]
  %4 = phi double [ %5, %.lr.ph ], [ 1.000000e+00, %3 ]
  %5 = fmul double %4, 1.000000e+01
  %6 = add nuw nsw i32 %.014, 1
  %exitcond.not = icmp eq i32 %6, %0
  br i1 %exitcond.not, label %._crit_edge, label %.lr.ph, !llvm.loop !7

._crit_edge:                                      ; preds = %.lr.ph
  store double %5, ptr @_ZL3RES, align 8, !tbaa !3
  br label %7

7:                                                ; preds = %._crit_edge, %3
  %8 = phi double [ %5, %._crit_edge ], [ 1.000000e+00, %3 ]
  %9 = fmul double %8, 6.000000e+01
  store double %9, ptr @_ZL5RES60, align 8, !tbaa !3
  %10 = fmul double %8, 6.480000e+05
  %11 = fdiv double %10, 0x400921FB54442D18
  store double %11, ptr @_ZL4CONV, align 8, !tbaa !3
  %.not = icmp eq i32 %1, 0
  br i1 %.not, label %12, label %14

12:                                               ; preds = %7
  %13 = tail call i32 (ptr, i64, ptr, ...) @snprintf(ptr noundef nonnull dereferenceable(1) @_ZL6format, i64 noundef 50, ptr noundef nonnull @.str, i32 noundef %0) #6
  br label %19

14:                                               ; preds = %7
  %15 = add nuw nsw i32 %0, 2
  %.not13 = icmp ne i32 %0, 0
  %16 = zext i1 %.not13 to i32
  %17 = add nuw nsw i32 %15, %16
  %18 = tail call i32 (ptr, i64, ptr, ...) @snprintf(ptr noundef nonnull dereferenceable(1) @_ZL6format, i64 noundef 50, ptr noundef nonnull @.str.1, i32 noundef %17, i32 noundef %0) #6
  br label %19

19:                                               ; preds = %14, %12
  store i32 %1, ptr @_ZL6dolong, align 4, !tbaa !9
  br label %20

20:                                               ; preds = %19, %2
  ret void
}